target datalayout = "e-m:e-p270:32:32-p271:32:32-p272:64:64-i64:64-i128:128-f80:128-n8:16:32:64-S128"
target triple = "x86_64-pc-linux-gnu"

%"struct.boost::detail::function::function_buffer_members::type_t" = type { ptr, i8, i8 }
%"class.std::type_info" = type { ptr, ptr }

; Function Attrs: mustprogress nounwind uwtable
define linkonce_odr hidden noundef ptr @_ZNKSt9type_info4nameEv(ptr noundef nonnull align 8 dereferenceable(16) %0) #4 comdat align 2 {
  %2 = alloca ptr, align 8
  store ptr %0, ptr %2, align 8, !tbaa !3
  %3 = load ptr, ptr %2, align 8
  %4 = getelementptr inbounds nuw %"class.std::type_info", ptr %3, i32 0, i32 1
  %5 = load ptr, ptr %4, align 8, !tbaa !231
  %6 = getelementptr inbounds i8, ptr %5, i64 0
  %7 = load i8, ptr %6, align 1, !tbaa !7
  %8 = sext i8 %7 to i32
  %9 = icmp eq i32 %8, 42
  br i1 %9, label %10, label %14

10:                                               ; preds = %1
  %11 = getelementptr inbounds nuw %"class.std::type_info", ptr %3, i32 0, i32 1
  %12 = load ptr, ptr %11, align 8, !tbaa !231
  %13 = getelementptr inbounds i8, ptr %12, i64 1
  br label %17

14:                                               ; preds = %1
  %15 = getelementptr inbounds nuw %"class.std::type_info", ptr %3, i32 0, i32 1
  %16 = load ptr, ptr %15, align 8, !tbaa !231
  br label %17

17:                                               ; preds = %14, %10
  %18 = phi ptr [ %13, %10 ], [ %16, %14 ]
  ret ptr %18
}

; Function Attrs: inlinehint mustprogress nounwind uwtable
define linkonce_odr hidden noundef zeroext i1 @_ZNKSt9type_infoeqERKS_(ptr noundef nonnull align 8 dereferenceable(16) %0, ptr noundef nonnull align 8 dereferenceable(16) %1) #8 comdat align 2 {
  %3 = alloca i1, align 1
  %4 = alloca ptr, align 8
  %5 = alloca ptr, align 8
  store ptr %0, ptr %4, align 8, !tbaa !3
  store ptr %1, ptr %5, align 8, !tbaa !3
  %6 = load ptr, ptr %4, align 8
  %7 = getelementptr inbounds nuw %"class.std::type_info", ptr %6, i32 0, i32 1
  %8 = load ptr, ptr %7, align 8, !tbaa !231
  %9 = load ptr, ptr %5, align 8, !tbaa !3
  %10 = getelementptr inbounds nuw %"class.std::type_info", ptr %9, i32 0, i32 1
  %11 = load ptr, ptr %10, align 8, !tbaa !231
  %12 = icmp eq ptr %8, %11
  br i1 %12, label %13, label %14

13:                                               ; preds = %2
  store i1 true, ptr %3, align 1
  br label %30

14:                                               ; preds = %2
  %15 = getelementptr inbounds nuw %"class.std::type_info", ptr %6, i32 0, i32 1
  %16 = load ptr, ptr %15, align 8, !tbaa !231
  %17 = getelementptr inbounds i8, ptr %16, i64 0
  %18 = load i8, ptr %17, align 1, !tbaa !7
  %19 = sext i8 %18 to i32
  %20 = icmp ne i32 %19, 42
  br i1 %20, label %21, label %28

21:                                               ; preds = %14
  %22 = getelementptr inbounds nuw %"class.std::type_info", ptr %6, i32 0, i32 1
  %23 = load ptr, ptr %22, align 8, !tbaa !231
  %24 = load ptr, ptr %5, align 8, !tbaa !3
  %25 = call noundef ptr @_ZNKSt9type_info4nameEv(ptr noundef nonnull align 8 dereferenceable(16) %24) #3
  %26 = call i32 @strcmp(ptr noundef %23, ptr noundef %25) #3
  %27 = icmp eq i32 %26, 0
  br label %28

28:                                               ; preds = %21, %14
  %29 = phi i1 [ false, %14 ], [ %27, %21 ]
  store i1 %29, ptr %3, align 1
  br label %30

30:                                               ; preds = %28, %13
  %31 = load i1, ptr %3, align 1
  ret i1 %31
}

; Function Attrs: inlinehint mustprogress nounwind uwtable
define internal void @"_ZN5boost6detail8function22functor_manager_commonIZNS_9unit_test14runtime_config12_GLOBAL__N_119register_parametersERNS_7runtime16parameters_storeEE3$_0E12manage_smallERKNS1_15function_bufferERSB_NS1_30functor_manager_operation_typeE"(ptr noundef nonnull align 8 dereferenceable(24) %0, ptr noundef nonnull align 8 dereferenceable(24) %1, i32 noundef %2) #8 align 2 {
  %4 = alloca ptr, align 8
  %5 = alloca ptr, align 8
  %6 = alloca i32, align 4
  %7 = alloca ptr, align 8
  %8 = alloca ptr, align 8
  %9 = alloca ptr, align 8
  store ptr %0, ptr %4, align 8, !tbaa !3
  store ptr %1, ptr %5, align 8, !tbaa !3
  store i32 %2, ptr %6, align 4, !tbaa !229
  %10 = load i32, ptr %6, align 4, !tbaa !229
  %11 = icmp eq i32 %10, 0
  br i1 %11, label %12, label %15

12:                                               ; preds = %3
  call void @llvm.lifetime.start.p0(i64 8, ptr %7) #3
  %13 = load ptr, ptr %4, align 8, !tbaa !3
  %14 = getelementptr inbounds [24 x i8], ptr %13, i64 0, i64 0
  store ptr %14, ptr %7, align 8, !tbaa !3
  call void @llvm.lifetime.end.p0(i64 8, ptr %7) #3
  br label %52

15:                                               ; preds = %3
  %16 = load i32, ptr %6, align 4, !tbaa !229
  %17 = icmp eq i32 %16, 1
  br i1 %17, label %18, label %21

18:                                               ; preds = %15
  call void @llvm.lifetime.start.p0(i64 8, ptr %8) #3
  %19 = load ptr, ptr %4, align 8, !tbaa !3
  %20 = getelementptr inbounds [24 x i8], ptr %19, i64 0, i64 0
  store ptr %20, ptr %8, align 8, !tbaa !3
  call void @llvm.lifetime.end.p0(i64 8, ptr %8) #3
  br label %51

21:                                               ; preds = %15
  %22 = load i32, ptr %6, align 4, !tbaa !229
  %23 = icmp eq i32 %22, 2
  br i1 %23, label %24, label %27

24:                                               ; preds = %21
  call void @llvm.lifetime.start.p0(i64 8, ptr %9) #3
  %25 = load ptr, ptr %5, align 8, !tbaa !3
  %26 = getelementptr inbounds [24 x i8], ptr %25, i64 0, i64 0
  store ptr %26, ptr %9, align 8, !tbaa !3
  call void @llvm.lifetime.end.p0(i64 8, ptr %9) #3
  br label %50

27:                                               ; preds = %21
  %28 = load i32, ptr %6, align 4, !tbaa !229
  %29 = icmp eq i32 %28, 3
  br i1 %29, label %30, label %42

30:                                               ; preds = %27
  %31 = load ptr, ptr %5, align 8, !tbaa !3
  %32 = getelementptr inbounds nuw %"struct.boost::detail::function::function_buffer_members::type_t", ptr %31, i32 0, i32 0
  %33 = load ptr, ptr %32, align 8, !tbaa !7
  %34 = call noundef zeroext i1 @_ZNKSt9type_infoeqERKS_(ptr noundef nonnull align 8 dereferenceable(16) %33, ptr noundef nonnull align 8 dereferenceable(16) @"_ZTIZN5boost9unit_test14runtime_config12_GLOBAL__N_119register_parametersERNS_7runtime16parameters_storeEE3$_0") #3
  br i1 %34, label %35, label %39

35:                                               ; preds = %30
  %36 = load ptr, ptr %4, align 8, !tbaa !3
  %37 = getelementptr inbounds [24 x i8], ptr %36, i64 0, i64 0
  %38 = load ptr, ptr %5, align 8, !tbaa !3
  store ptr %37, ptr %38, align 8, !tbaa !7
  br label %41

39:                                               ; preds = %30
  %40 = load ptr, ptr %5, align 8, !tbaa !3
  store ptr null, ptr %40, align 8, !tbaa !7
  br label %41

41:                                               ; preds = %39, %35
  br label %49

42:                                               ; preds = %27
  %43 = load ptr, ptr %5, align 8, !tbaa !3
  %44 = getelementptr inbounds nuw %"struct.boost::detail::function::function_buffer_members::type_t", ptr %43, i32 0, i32 0
  store ptr @"_ZTIZN5boost9unit_test14runtime_config12_GLOBAL__N_119register_parametersERNS_7runtime16parameters_storeEE3$_0", ptr %44, align 8, !tbaa !7
  %45 = load ptr, ptr %5, align 8, !tbaa !3
  %46 = getelementptr inbounds nuw %"struct.boost::detail::function::function_buffer_members::type_t", ptr %45, i32 0, i32 1
  store i8 0, ptr %46, align 8, !tbaa !7
  %47 = load ptr, ptr %5, align 8, !tbaa !3
  %48 = getelementptr inbounds nuw %"struct.boost::detail::function::function_buffer_members::type_t", ptr %47, i32 0, i32 2
  store i8 0, ptr %48, align 1, !tbaa !7
  br label %49

49:                                               ; preds = %42, %41
  br label %50

50:                                               ; preds = %49, %24
  br label %51

51:                                               ; preds = %50, %18
  br label %52

52:                                               ; preds = %51, %12
  ret void
}

; Function Attrs: inlinehint mustprogress uwtable
define internal void @"_ZN5boost6detail8function15functor_managerIZNS_9unit_test14runtime_config12_GLOBAL__N_119register_parametersERNS_7runtime16parameters_storeEE3$_0E7managerERKNS1_15function_bufferERSB_NS1_30functor_manager_operation_typeESt17integral_constantIbLb1EE"(ptr noundef nonnull align 8 dereferenceable(24) %0, ptr noundef nonnull align 8 dereferenceable(24) %1, i32 noundef %2) #6 align 2 {
  %4 = alloca ptr, align 8
  %5 = alloca ptr, align 8
  %6 = alloca i32, align 4
  store ptr %0, ptr %4, align 8, !tbaa !3
  store ptr %1, ptr %5, align 8, !tbaa !3
  store i32 %2, ptr %6, align 4, !tbaa !229
  %7 = load ptr, ptr %4, align 8, !tbaa !3
  %8 = load ptr, ptr %5, align 8, !tbaa !3
  %9 = load i32, ptr %6, align 4, !tbaa !229
  call void @"_ZN5boost6detail8function22functor_manager_commonIZNS_9unit_test14runtime_config12_GLOBAL__N_119register_parametersERNS_7runtime16parameters_storeEE3$_0E12manage_smallERKNS1_15function_bufferERSB_NS1_30functor_manager_operation_typeE"(ptr noundef nonnull align 8 dereferenceable(24) %7, ptr noundef nonnull align 8 dereferenceable(24) %8, i32 noundef %9)
  ret void
}

; Function Attrs: inlinehint mustprogress uwtable
define internal void @"_ZN5boost6detail8function15functor_managerIZNS_9unit_test14runtime_config12_GLOBAL__N_119register_parametersERNS_7runtime16parameters_storeEE3$_0E7managerERKNS1_15function_bufferERSB_NS1_30functor_manager_operation_typeENS1_16function_obj_tagE"(ptr noundef nonnull align 8 dereferenceable(24) %0, ptr noundef nonnull align 8 dereferenceable(24) %1, i32 noundef %2) #6 align 2 {
  %4 = alloca ptr, align 8
  %5 = alloca ptr, align 8
  %6 = alloca i32, align 4
  store ptr %0, ptr %4, align 8, !tbaa !3
  store ptr %1, ptr %5, align 8, !tbaa !3
  store i32 %2, ptr %6, align 4, !tbaa !229
  %7 = load ptr, ptr %4, align 8, !tbaa !3
  %8 = load ptr, ptr %5, align 8, !tbaa !3
  %9 = load i32, ptr %6, align 4, !tbaa !229
  call void @"_ZN5boost6detail8function15functor_managerIZNS_9unit_test14runtime_config12_GLOBAL__N_119register_parametersERNS_7runtime16parameters_storeEE3$_0E7managerERKNS1_15function_bufferERSB_NS1_30functor_manager_operation_typeESt17integral_constantIbLb1EE"(ptr noundef nonnull align 8 dereferenceable(24) %7, ptr noundef nonnull align 8 dereferenceable(24) %8, i32 noundef %9)
  ret void
}

; Function Attrs: inlinehint mustprogress uwtable
define internal void @"_ZN5boost6detail8function15functor_managerIZNS_9unit_test14runtime_config12_GLOBAL__N_119register_parametersERNS_7runtime16parameters_storeEE3$_0E6manageERKNS1_15function_bufferERSB_NS1_30functor_manager_operation_typeE"(ptr noundef nonnull align 8 dereferenceable(24) %0, ptr noundef nonnull align 8 dereferenceable(24) %1, i32 noundef %2) #6 align 2 {
  %4 = alloca ptr, align 8
  %5 = alloca ptr, align 8
  %6 = alloca i32, align 4
  store ptr %0, ptr %4, align 8, !tbaa !3
  store ptr %1, ptr %5, align 8, !tbaa !3
  store i32 %2, ptr %6, align 4, !tbaa !229
  %7 = load i32, ptr %6, align 4, !tbaa !229
  %8 = icmp eq i32 %7, 4
  br i1 %8, label %9, label %16

9:                                                ; preds = %3
  %10 = load ptr, ptr %5, align 8, !tbaa !3
  %11 = getelementptr inbounds nuw %"struct.boost::detail::function::function_buffer_members::type_t", ptr %10, i32 0, i32 0
  store ptr @"_ZTIZN5boost9unit_test14runtime_config12_GLOBAL__N_119register_parametersERNS_7runtime16parameters_storeEE3$_0", ptr %11, align 8, !tbaa !7
  %12 = load ptr, ptr %5, align 8, !tbaa !3
  %13 = getelementptr inbounds nuw %"struct.boost::detail::function::function_buffer_members::type_t", ptr %12, i32 0, i32 1
  store i8 0, ptr %13, align 8, !tbaa !7
  %14 = load ptr, ptr %5, align 8, !tbaa !3
  %15 = getelementptr inbounds nuw %"struct.boost::detail::function::function_buffer_members::type_t", ptr %14, i32 0, i32 2
  store i8 0, ptr %15, align 1, !tbaa !7
  br label %20

16:                                               ; preds = %3
  %17 = load ptr, ptr %4, align 8, !tbaa !3
  %18 = load ptr, ptr %5, align 8, !tbaa !3
  %19 = load i32, ptr %6, align 4, !tbaa !229
  call void @"_ZN5boost6detail8function15functor_managerIZNS_9unit_test14runtime_config12_GLOBAL__N_119register_parametersERNS_7runtime16parameters_storeEE3$_0E7managerERKNS1_15function_bufferERSB_NS1_30functor_manager_operation_typeENS1_16function_obj_tagE"(ptr noundef nonnull align 8 dereferenceable(24) %17, ptr noundef nonnull align 8 dereferenceable(24) %18, i32 noundef %19)
  br label %20

20:                                               ; preds = %16, %9
  ret void
}