; Function Attrs: inlinehint mustprogress nofree nounwind willreturn memory(read, argmem: readwrite, inaccessiblemem: none) uwtable
define internal void @"_ZN5boost6detail8function15functor_managerIZNS_9unit_test14runtime_config12_GLOBAL__N_119register_parametersERNS_7runtime16parameters_storeEE3$_0E6manageERKNS1_15function_bufferERSB_NS1_30functor_manager_operation_typeE"(ptr noundef nonnull align 8 dereferenceable(24) %0, ptr nocapture noundef nonnull align 8 dereferenceable(24) %1, i32 noundef %2) #23 align 2 {
  switch i32 %2, label %16 [
    i32 4, label %4
    i32 0, label %"_ZN5boost6detail8function15functor_managerIZNS_9unit_test14runtime_config12_GLOBAL__N_119register_parametersERNS_7runtime16parameters_storeEE3$_0E7managerERKNS1_15function_bufferERSB_NS1_30functor_manager_operation_typeENS1_16function_obj_tagE.exit"
    i32 1, label %"_ZN5boost6detail8function15functor_managerIZNS_9unit_test14runtime_config12_GLOBAL__N_119register_parametersERNS_7runtime16parameters_storeEE3$_0E7managerERKNS1_15function_bufferERSB_NS1_30functor_manager_operation_typeENS1_16function_obj_tagE.exit"
    i32 2, label %"_ZN5boost6detail8function15functor_managerIZNS_9unit_test14runtime_config12_GLOBAL__N_119register_parametersERNS_7runtime16parameters_storeEE3$_0E7managerERKNS1_15function_bufferERSB_NS1_30functor_manager_operation_typeENS1_16function_obj_tagE.exit"
    i32 3, label %7
  ]

4:                                                ; preds = %3
  store ptr @"_ZTIZN5boost9unit_test14runtime_config12_GLOBAL__N_119register_parametersERNS_7runtime16parameters_storeEE3$_0", ptr %1, align 8, !tbaa !21
  %5 = getelementptr inbounds nuw i8, ptr %1, i64 8
  store i8 0, ptr %5, align 8, !tbaa !21
  %6 = getelementptr inbounds nuw i8, ptr %1, i64 9
  store i8 0, ptr %6, align 1, !tbaa !21
  br label %"_ZN5boost6detail8function15functor_managerIZNS_9unit_test14runtime_config12_GLOBAL__N_119register_parametersERNS_7runtime16parameters_storeEE3$_0E7managerERKNS1_15function_bufferERSB_NS1_30functor_manager_operation_typeENS1_16function_obj_tagE.exit"

7:                                                ; preds = %3
  %8 = load ptr, ptr %1, align 8, !tbaa !21
  %9 = getelementptr inbounds nuw i8, ptr %8, i64 8
  %10 = load ptr, ptr %9, align 8, !tbaa !603
  %11 = icmp eq ptr %10, @"_ZTSZN5boost9unit_test14runtime_config12_GLOBAL__N_119register_parametersERNS_7runtime16parameters_storeEE3$_0"
  br i1 %11, label %_ZNKSt9type_infoeqERKS_.exit.thread.i.i.i, label %12

12:                                               ; preds = %7
  %13 = load i8, ptr %10, align 1, !tbaa !21
  %.not.i.i.i.i = icmp eq i8 %13, 42
  br i1 %.not.i.i.i.i, label %_ZNKSt9type_infoeqERKS_.exit.thread14.i.i.i, label %_ZNKSt9type_infoeqERKS_.exit.i.i.i

_ZNKSt9type_infoeqERKS_.exit.i.i.i:               ; preds = %12
  %14 = tail call i32 @strcmp(ptr noundef nonnull dereferenceable(1) %10, ptr noundef nonnull dereferenceable(107) @"_ZTSZN5boost9unit_test14runtime_config12_GLOBAL__N_119register_parametersERNS_7runtime16parameters_storeEE3$_0") #31
  %15 = icmp eq i32 %14, 0
  br i1 %15, label %_ZNKSt9type_infoeqERKS_.exit.thread.i.i.i, label %_ZNKSt9type_infoeqERKS_.exit.thread14.i.i.i

_ZNKSt9type_infoeqERKS_.exit.thread.i.i.i:        ; preds = %_ZNKSt9type_infoeqERKS_.exit.i.i.i, %7
  store ptr %0, ptr %1, align 8, !tbaa !21
  br label %"_ZN5boost6detail8function15functor_managerIZNS_9unit_test14runtime_config12_GLOBAL__N_119register_parametersERNS_7runtime16parameters_storeEE3$_0E7managerERKNS1_15function_bufferERSB_NS1_30functor_manager_operation_typeENS1_16function_obj_tagE.exit"

_ZNKSt9type_infoeqERKS_.exit.thread14.i.i.i:      ; preds = %_ZNKSt9type_infoeqERKS_.exit.i.i.i, %12
  store ptr null, ptr %1, align 8, !tbaa !21
  br label %"_ZN5boost6detail8function15functor_managerIZNS_9unit_test14runtime_config12_GLOBAL__N_119register_parametersERNS_7runtime16parameters_storeEE3$_0E7managerERKNS1_15function_bufferERSB_NS1_30functor_manager_operation_typeENS1_16function_obj_tagE.exit"

16:                                               ; preds = %3
  store ptr @"_ZTIZN5boost9unit_test14runtime_config12_GLOBAL__N_119register_parametersERNS_7runtime16parameters_storeEE3$_0", ptr %1, align 8, !tbaa !21
  %17 = getelementptr inbounds nuw i8, ptr %1, i64 8
  store i8 0, ptr %17, align 8, !tbaa !21
  %18 = getelementptr inbounds nuw i8, ptr %1, i64 9
  store i8 0, ptr %18, align 1, !tbaa !21
  br label %"_ZN5boost6detail8function15functor_managerIZNS_9unit_test14runtime_config12_GLOBAL__N_119register_parametersERNS_7runtime16parameters_storeEE3$_0E7managerERKNS1_15function_bufferERSB_NS1_30functor_manager_operation_typeENS1_16function_obj_tagE.exit"

"_ZN5boost6detail8function15functor_managerIZNS_9unit_test14runtime_config12_GLOBAL__N_119register_parametersERNS_7runtime16parameters_storeEE3$_0E7managerERKNS1_15function_bufferERSB_NS1_30functor_manager_operation_typeENS1_16function_obj_tagE.exit": ; preds = %3, %3, %3, %16, %_ZNKSt9type_infoeqERKS_.exit.thread14.i.i.i, %_ZNKSt9type_infoeqERKS_.exit.thread.i.i.i, %4
  ret void
}